target datalayout = "e-m:e-p270:32:32-p271:32:32-p272:64:64-i64:64-i128:128-f80:128-n8:16:32:64-S128"
target triple = "x86_64-unknown-linux-gnu"

%"class.icu_75::MessageFormat" = type { %"class.icu_75::Format.base", [6 x i8], %"class.icu_75::Locale", %"class.icu_75::MessagePattern", ptr, i32, ptr, i32, i32, i8, ptr, ptr, ptr, ptr, %"class.icu_75::MessageFormat::PluralSelectorProvider", %"class.icu_75::MessageFormat::PluralSelectorProvider" }
%"class.icu_75::Format.base" = type <{ %"class.icu_75::UObject", [157 x i8], [157 x i8] }>
%"class.icu_75::UObject" = type { ptr }
%"class.icu_75::Locale" = type <{ %"class.icu_75::UObject", [12 x i8], [6 x i8], [4 x i8], [2 x i8], i32, [4 x i8], ptr, [157 x i8], [3 x i8], ptr, i8, [7 x i8] }>
%"class.icu_75::MessagePattern" = type <{ %"class.icu_75::UObject", i32, [4 x i8], %"class.icu_75::UnicodeString", ptr, ptr, i32, [4 x i8], ptr, ptr, i32, i8, i8, i8, i8 }>
%"class.icu_75::UnicodeString" = type { %"class.icu_75::Replaceable", %"union.icu_75::UnicodeString::StackBufferOrFields" }
%"class.icu_75::Replaceable" = type { %"class.icu_75::UObject" }
%"union.icu_75::UnicodeString::StackBufferOrFields" = type { %struct.anon.0, [32 x i8] }
%struct.anon.0 = type { i16, i32, i32, ptr }
%"class.icu_75::MessageFormat::PluralSelectorProvider" = type <{ %"class.icu_75::PluralFormat::PluralSelector", ptr, ptr, i32, [4 x i8] }>
%"class.icu_75::PluralFormat::PluralSelector" = type { ptr }

; Function Attrs: mustprogress uwtable
define noundef ptr @_ZNK6icu_7513MessageFormat20getDefaultDateFormatER10UErrorCode(ptr noundef nonnull align 8 dereferenceable(816) %this, ptr noundef nonnull align 4 dereferenceable(4) %ec) #1 align 2 {
entry:
  %this.addr = alloca ptr, align 8
  %ec.addr = alloca ptr, align 8
  %t = alloca ptr, align 8
  store ptr %this, ptr %this.addr, align 8
  store ptr %ec, ptr %ec.addr, align 8
  %this1 = load ptr, ptr %this.addr, align 8
  %defaultDateFormat = getelementptr inbounds %"class.icu_75::MessageFormat", ptr %this1, i32 0, i32 11
  %0 = load ptr, ptr %defaultDateFormat, align 8
  %cmp = icmp eq ptr %0, null
  br i1 %cmp, label %if.then, label %if.end6

if.then:                                          ; preds = %entry
  store ptr %this1, ptr %t, align 8
  %fLocale = getelementptr inbounds %"class.icu_75::MessageFormat", ptr %this1, i32 0, i32 2
  %call = call noundef ptr @_ZN6icu_7510DateFormat22createDateTimeInstanceENS0_6EStyleES1_RKNS_6LocaleE(i32 noundef 3, i32 noundef 3, ptr noundef nonnull align 8 dereferenceable(217) %fLocale)
  %1 = load ptr, ptr %t, align 8
  %defaultDateFormat2 = getelementptr inbounds %"class.icu_75::MessageFormat", ptr %1, i32 0, i32 11
  store ptr %call, ptr %defaultDateFormat2, align 8
  %2 = load ptr, ptr %t, align 8
  %defaultDateFormat3 = getelementptr inbounds %"class.icu_75::MessageFormat", ptr %2, i32 0, i32 11
  %3 = load ptr, ptr %defaultDateFormat3, align 8
  %cmp4 = icmp eq ptr %3, null
  br i1 %cmp4, label %if.then5, label %if.end

if.then5:                                         ; preds = %if.then
  %4 = load ptr, ptr %ec.addr, align 8
  store i32 7, ptr %4, align 4
  br label %if.end

if.end:                                           ; preds = %if.then5, %if.then
  br label %if.end6

if.end6:                                          ; preds = %if.end, %entry
  %defaultDateFormat7 = getelementptr inbounds %"class.icu_75::MessageFormat", ptr %this1, i32 0, i32 11
  %5 = load ptr, ptr %defaultDateFormat7, align 8
  ret ptr %5
}