; Function Attrs: mustprogress uwtable
define noundef ptr @_ZNK6icu_7513MessageFormat20getDefaultDateFormatER10UErrorCode(ptr noundef nonnull align 8 dereferenceable(816) %this, ptr nocapture noundef nonnull writeonly align 4 dereferenceable(4) %ec) local_unnamed_addr #1 align 2 {
entry:
  %defaultDateFormat = getelementptr inbounds i8, ptr %this, i64 728
  %0 = load ptr, ptr %defaultDateFormat, align 8
  %cmp = icmp eq ptr %0, null
  br i1 %cmp, label %if.then, label %if.end6

if.then:                                          ; preds = %entry
  %fLocale = getelementptr inbounds i8, ptr %this, i64 328
  %call = tail call noundef ptr @_ZN6icu_7510DateFormat22createDateTimeInstanceENS0_6EStyleES1_RKNS_6LocaleE(i32 noundef 3, i32 noundef 3, ptr noundef nonnull align 8 dereferenceable(217) %fLocale)
  store ptr %call, ptr %defaultDateFormat, align 8
  %cmp4 = icmp eq ptr %call, null
  br i1 %cmp4, label %if.then5, label %if.end6

if.then5:                                         ; preds = %if.then
  store i32 7, ptr %ec, align 4
  %.pre = load ptr, ptr %defaultDateFormat, align 8
  br label %if.end6

if.end6:                                          ; preds = %if.then, %if.then5, %entry
  %1 = phi ptr [ %call, %if.then ], [ %.pre, %if.then5 ], [ %0, %entry ]
  ret ptr %1
}